target datalayout = "e-m:e-p270:32:32-p271:32:32-p272:64:64-i64:64-i128:128-f80:128-n8:16:32:64-S128"
target triple = "x86_64-pc-linux-gnu"

%"struct.std::array" = type { [3 x i16] }

; Function Attrs: mustprogress nounwind uwtable
define linkonce_odr hidden noundef nonnull align 2 dereferenceable(2) ptr @_ZNSt14__array_traitsItLm3EE6_S_refERA3_Ktm(ptr noundef nonnull align 2 dereferenceable(6) %0, i64 noundef %1) #0 comdat align 2 {
  %3 = alloca ptr, align 8
  %4 = alloca i64, align 8
  store ptr %0, ptr %3, align 8
  store i64 %1, ptr %4, align 8
  %5 = load ptr, ptr %3, align 8
  %6 = load i64, ptr %4, align 8
  %7 = getelementptr inbounds [3 x i16], ptr %5, i64 0, i64 %6
  ret ptr %7
}

; Function Attrs: mustprogress nounwind uwtable
define linkonce_odr hidden noundef nonnull align 2 dereferenceable(2) ptr @_ZNSt5arrayItLm3EEixEm(ptr noundef nonnull align 2 dereferenceable(6) %0, i64 noundef %1) #0 comdat align 2 {
  %3 = alloca ptr, align 8
  %4 = alloca i64, align 8
  store ptr %0, ptr %3, align 8
  store i64 %1, ptr %4, align 8
  %5 = load ptr, ptr %3, align 8
  %6 = getelementptr inbounds %"struct.std::array", ptr %5, i32 0, i32 0
  %7 = load i64, ptr %4, align 8
  %8 = call noundef nonnull align 2 dereferenceable(2) ptr @_ZNSt14__array_traitsItLm3EE6_S_refERA3_Ktm(ptr noundef nonnull align 2 dereferenceable(6) %6, i64 noundef %7) #10
  ret ptr %8
}

; Function Attrs: mustprogress nounwind uwtable
define noundef i32 @_ZN4LIEF5MachO12DylibCommand11version2intESt5arrayItLm3EE(i48 %0) #0 align 2 {
  %2 = alloca %"struct.std::array", align 2
  %3 = alloca i48, align 8
  %4 = getelementptr inbounds %"struct.std::array", ptr %2, i32 0, i32 0
  store i48 %0, ptr %3, align 8
  call void @llvm.memcpy.p0.p0.i64(ptr align 2 %4, ptr align 8 %3, i64 6, i1 false)
  %5 = call noundef nonnull align 2 dereferenceable(2) ptr @_ZNSt5arrayItLm3EEixEm(ptr noundef nonnull align 2 dereferenceable(6) %2, i64 noundef 2) #10
  %6 = load i16, ptr %5, align 2
  %7 = zext i16 %6 to i32
  %8 = call noundef nonnull align 2 dereferenceable(2) ptr @_ZNSt5arrayItLm3EEixEm(ptr noundef nonnull align 2 dereferenceable(6) %2, i64 noundef 1) #10
  %9 = load i16, ptr %8, align 2
  %10 = zext i16 %9 to i32
  %11 = shl i32 %10, 8
  %12 = or i32 %7, %11
  %13 = call noundef nonnull align 2 dereferenceable(2) ptr @_ZNSt5arrayItLm3EEixEm(ptr noundef nonnull align 2 dereferenceable(6) %2, i64 noundef 0) #10
  %14 = load i16, ptr %13, align 2
  %15 = zext i16 %14 to i32
  %16 = shl i32 %15, 16
  %17 = or i32 %12, %16
  ret i32 %17
}