; Function Attrs: mustprogress nofree norecurse nosync nounwind willreturn memory(none) uwtable
define noundef i32 @_ZN4LIEF5MachO12DylibCommand11version2intESt5arrayItLm3EE(i48 %0) local_unnamed_addr #0 align 2 {
  %.sroa.0.0.extract.trunc = trunc i48 %0 to i32
  %.sroa.3.0.extract.shift = lshr i48 %0, 32
  %.sroa.3.0.extract.trunc = trunc i48 %.sroa.3.0.extract.shift to i32
  %2 = lshr i32 %.sroa.0.0.extract.trunc, 8
  %3 = and i32 %2, 16776960
  %4 = shl i32 %.sroa.0.0.extract.trunc, 16
  %5 = or disjoint i32 %4, %.sroa.3.0.extract.trunc
  %6 = or i32 %5, %3
  ret i32 %6
}